target datalayout = "e-m:e-p270:32:32-p271:32:32-p272:64:64-i64:64-i128:128-f80:128-n8:16:32:64-S128"
target triple = "x86_64-pc-linux-gnu"

%struct.expert_field = type { i32, i32 }
%struct._packet_info = type { ptr, ptr, i32, i32, %struct.nstime_t, %struct.nstime_t, %struct.nstime_t, i8, ptr, ptr, ptr, ptr, %struct._address, %struct._address, %struct._address, %struct._address, %struct._address, %struct._address, i32, ptr, i8, [3 x i8], %struct.anon, i32, i32, i32, i32, ptr, i8, ptr, ptr, i16, i16, i32, i32, i16, i32, i32, ptr, ptr, ptr, i8, i8, i16, i16, i16, i32, i16, i16, ptr, ptr, ptr, ptr, ptr, i32, i32 }
%struct.nstime_t = type { i64, i32 }
%struct._address = type { i32, i32, ptr, ptr }
%struct.anon = type { i8, [3 x i8] }
%struct._asn1_ctx_t = type { i32, i32, i8, ptr, ptr, ptr, ptr, ptr, %struct.anon.0, %struct.anon.3, %struct.anon.4, ptr }
%struct.anon.0 = type { i32, i8, i8, i8, ptr, ptr, i32, i32, ptr, ptr, ptr, %union.anon }
%union.anon = type { %struct.anon.1 }
%struct.anon.1 = type { ptr }
%struct.anon.3 = type { ptr, ptr, ptr }
%struct.anon.4 = type { i32, i8, ptr, i32, i32, ptr, ptr, ptr, %union.anon.5 }
%union.anon.5 = type { %struct.anon.6 }
%struct.anon.6 = type { ptr }

@ei_per_undecoded = internal global %struct.expert_field zeroinitializer, align 4
@.str = private unnamed_addr constant [28 x i8] c"something unknown here [%s]\00", align 1
@.str.1 = private unnamed_addr constant [18 x i8] c"[UNKNOWN PER: %s]\00", align 1
@ett_per_sequence_of_item = internal global i32 0, align 4
@.str.167 = private unnamed_addr constant [8 x i8] c"Item %d\00", align 1
@.str.168 = private unnamed_addr constant [27 x i8] c"too many nulls in sequence\00", align 1

; Function Attrs: null_pointer_is_valid sspstrong uwtable
define void @dissect_per_not_decoded_yet(ptr noundef %0, ptr noundef %1, ptr noundef %2, ptr noundef %3) #0 {
  %5 = alloca ptr, align 8
  %6 = alloca ptr, align 8
  %7 = alloca ptr, align 8
  %8 = alloca ptr, align 8
  store ptr %0, ptr %5, align 8
  store ptr %1, ptr %6, align 8
  store ptr %2, ptr %7, align 8
  store ptr %3, ptr %8, align 8
  %9 = load ptr, ptr %5, align 8
  %10 = load ptr, ptr %6, align 8
  %11 = load ptr, ptr %7, align 8
  %12 = load ptr, ptr %8, align 8
  %13 = call ptr (ptr, ptr, ptr, ptr, i32, i32, ptr, ...) @proto_tree_add_expert_format(ptr noundef %9, ptr noundef %10, ptr noundef @ei_per_undecoded, ptr noundef %11, i32 noundef 0, i32 noundef 0, ptr noundef @.str, ptr noundef %12)
  %14 = load ptr, ptr %6, align 8
  %15 = getelementptr inbounds nuw %struct._packet_info, ptr %14, i32 0, i32 1
  %16 = load ptr, ptr %15, align 8
  %17 = load ptr, ptr %8, align 8
  call void (ptr, i32, ptr, ...) @col_append_fstr(ptr noundef %16, i32 noundef 25, ptr noundef @.str.1, ptr noundef %17)
  call void @except_throw(i64 noundef 1, i64 noundef 3, ptr noundef null) #12
  unreachable
}

; Function Attrs: null_pointer_is_valid sspstrong uwtable
define internal i32 @dissect_per_sequence_of_helper(ptr noundef %0, i32 noundef %1, ptr noundef %2, ptr noundef %3, ptr noundef %4, i32 noundef %5, i32 noundef %6) #0 {
  %8 = alloca ptr, align 8
  %9 = alloca i32, align 4
  %10 = alloca ptr, align 8
  %11 = alloca ptr, align 8
  %12 = alloca ptr, align 8
  %13 = alloca i32, align 4
  %14 = alloca i32, align 4
  %15 = alloca i32, align 4
  %16 = alloca i32, align 4
  %17 = alloca i32, align 4
  %18 = alloca ptr, align 8
  %19 = alloca ptr, align 8
  store ptr %0, ptr %8, align 8
  store i32 %1, ptr %9, align 4
  store ptr %2, ptr %10, align 8
  store ptr %3, ptr %11, align 8
  store ptr %4, ptr %12, align 8
  store i32 %5, ptr %13, align 4
  store i32 %6, ptr %14, align 4
  call void @llvm.lifetime.start.p0(i64 4, ptr %15) #11
  call void @llvm.lifetime.start.p0(i64 4, ptr %16) #11
  %20 = load i32, ptr %9, align 4
  store i32 %20, ptr %16, align 4
  store i32 0, ptr %15, align 4
  br label %21

21:                                               ; preds = %69, %7
  %22 = load i32, ptr %15, align 4
  %23 = load i32, ptr %14, align 4
  %24 = icmp ult i32 %22, %23
  br i1 %24, label %25, label %72

25:                                               ; preds = %21
  call void @llvm.lifetime.start.p0(i64 4, ptr %17) #11
  %26 = load i32, ptr %9, align 4
  store i32 %26, ptr %17, align 4
  call void @llvm.lifetime.start.p0(i64 8, ptr %18) #11
  call void @llvm.lifetime.start.p0(i64 8, ptr %19) #11
  %27 = load ptr, ptr %11, align 8
  %28 = load ptr, ptr %8, align 8
  %29 = load i32, ptr %9, align 4
  %30 = lshr i32 %29, 3
  %31 = load i32, ptr @ett_per_sequence_of_item, align 4
  %32 = load i32, ptr %15, align 4
  %33 = call ptr (ptr, ptr, i32, i32, i32, ptr, ptr, ...) @proto_tree_add_subtree_format(ptr noundef %27, ptr noundef %28, i32 noundef %30, i32 noundef 0, i32 noundef %31, ptr noundef %18, ptr noundef @.str.167, i32 noundef %32)
  store ptr %33, ptr %19, align 8
  %34 = load ptr, ptr %12, align 8
  %35 = load ptr, ptr %8, align 8
  %36 = load i32, ptr %9, align 4
  %37 = load ptr, ptr %10, align 8
  %38 = load ptr, ptr %19, align 8
  %39 = load i32, ptr %13, align 4
  %40 = call i32 %34(ptr noundef %35, i32 noundef %36, ptr noundef %37, ptr noundef %38, i32 noundef %39)
  store i32 %40, ptr %9, align 4
  %41 = load ptr, ptr %18, align 8
  %42 = load i32, ptr %9, align 4
  %43 = lshr i32 %42, 3
  %44 = load i32, ptr %17, align 4
  %45 = lshr i32 %44, 3
  %46 = icmp ne i32 %43, %45
  br i1 %46, label %47, label %53

47:                                               ; preds = %25
  %48 = load i32, ptr %9, align 4
  %49 = lshr i32 %48, 3
  %50 = load i32, ptr %17, align 4
  %51 = lshr i32 %50, 3
  %52 = sub i32 %49, %51
  br label %54

53:                                               ; preds = %25
  br label %54

54:                                               ; preds = %53, %47
  %55 = phi i32 [ %52, %47 ], [ 1, %53 ]
  call void @proto_item_set_len(ptr noundef %41, i32 noundef %55)
  %56 = load i32, ptr %15, align 4
  %57 = icmp uge i32 %56, 9
  br i1 %57, label %58, label %68

58:                                               ; preds = %54
  %59 = load i32, ptr %9, align 4
  %60 = load i32, ptr %16, align 4
  %61 = icmp ule i32 %59, %60
  br i1 %61, label %62, label %68

62:                                               ; preds = %58
  %63 = load ptr, ptr %11, align 8
  %64 = load ptr, ptr %10, align 8
  %65 = getelementptr inbounds nuw %struct._asn1_ctx_t, ptr %64, i32 0, i32 3
  %66 = load ptr, ptr %65, align 8
  %67 = load ptr, ptr %8, align 8
  call void @dissect_per_not_decoded_yet(ptr noundef %63, ptr noundef %66, ptr noundef %67, ptr noundef @.str.168)
  br label %68

68:                                               ; preds = %62, %58, %54
  call void @llvm.lifetime.end.p0(i64 8, ptr %19) #11
  call void @llvm.lifetime.end.p0(i64 8, ptr %18) #11
  call void @llvm.lifetime.end.p0(i64 4, ptr %17) #11
  br label %69

69:                                               ; preds = %68
  %70 = load i32, ptr %15, align 4
  %71 = add i32 %70, 1
  store i32 %71, ptr %15, align 4
  br label %21, !llvm.loop !12

72:                                               ; preds = %21
  %73 = load i32, ptr %9, align 4
  call void @llvm.lifetime.end.p0(i64 4, ptr %16) #11
  call void @llvm.lifetime.end.p0(i64 4, ptr %15) #11
  ret i32 %73
}