; Function Attrs: null_pointer_is_valid sspstrong uwtable
define internal fastcc i32 @dissect_per_sequence_of_helper(ptr noundef %0, i32 noundef %1, ptr noundef %2, ptr noundef %3, ptr noundef readonly captures(none) %4, i32 noundef %5, i32 noundef %6) unnamed_addr #0 {
  %8 = alloca ptr, align 8
  %.not32 = icmp eq i32 %6, 0
  br i1 %.not32, label %._crit_edge, label %.lr.ph

.lr.ph:                                           ; preds = %7, %23
  %.031 = phi i32 [ %12, %23 ], [ %1, %7 ]
  %.02530 = phi i32 [ %24, %23 ], [ 0, %7 ]
  call void @llvm.lifetime.start.p0(i64 8, ptr nonnull %8) #13
  %9 = lshr i32 %.031, 3
  %10 = load i32, ptr @ett_per_sequence_of_item, align 4
  %11 = call ptr (ptr, ptr, i32, i32, i32, ptr, ptr, ...) @proto_tree_add_subtree_format(ptr noundef %3, ptr noundef %0, i32 noundef %9, i32 noundef 0, i32 noundef %10, ptr noundef nonnull %8, ptr noundef nonnull @.str.167, i32 noundef %.02530)
  %12 = call i32 %4(ptr noundef %0, i32 noundef %.031, ptr noundef %2, ptr noundef %11, i32 noundef %5)
  %13 = load ptr, ptr %8, align 8
  %14 = lshr i32 %12, 3
  %.not = icmp eq i32 %14, %9
  %15 = sub nsw i32 %14, %9
  %spec.select = select i1 %.not, i32 1, i32 %15
  call void @proto_item_set_len(ptr noundef %13, i32 noundef %spec.select)
  %16 = icmp ult i32 %.02530, 9
  %.not28 = icmp ugt i32 %12, %1
  %or.cond = or i1 %16, %.not28
  br i1 %or.cond, label %23, label %17

17:                                               ; preds = %.lr.ph
  %18 = getelementptr inbounds nuw i8, ptr %2, i64 16
  %19 = load ptr, ptr %18, align 8
  %20 = call ptr (ptr, ptr, ptr, ptr, i32, i32, ptr, ...) @proto_tree_add_expert_format(ptr noundef %3, ptr noundef %19, ptr noundef nonnull @ei_per_undecoded, ptr noundef %0, i32 noundef 0, i32 noundef 0, ptr noundef nonnull @.str, ptr noundef nonnull @.str.168)
  %21 = getelementptr inbounds nuw i8, ptr %19, i64 8
  %22 = load ptr, ptr %21, align 8
  call void (ptr, i32, ptr, ...) @col_append_fstr(ptr noundef %22, i32 noundef 25, ptr noundef nonnull @.str.1, ptr noundef nonnull @.str.168)
  call void @except_throw(i64 noundef 1, i64 noundef 3, ptr noundef null) #12
  unreachable

23:                                               ; preds = %.lr.ph
  call void @llvm.lifetime.end.p0(i64 8, ptr nonnull %8) #13
  %24 = add nuw i32 %.02530, 1
  %exitcond.not = icmp eq i32 %24, %6
  br i1 %exitcond.not, label %._crit_edge, label %.lr.ph, !llvm.loop !12

._crit_edge:                                      ; preds = %23, %7
  %.0.lcssa = phi i32 [ %1, %7 ], [ %12, %23 ]
  ret i32 %.0.lcssa
}